target datalayout = "e-m:e-p270:32:32-p271:32:32-p272:64:64-i64:64-i128:128-f80:128-n8:16:32:64-S128"
target triple = "x86_64-pc-linux-gnu"

%class.svector = type { %class.vector }
%class.vector = type { ptr }
%class.prime_generator = type { %class.svector }

; Function Attrs: mustprogress uwtable
define linkonce_odr hidden noundef nonnull align 8 dereferenceable(8) ptr @_ZN6vectorImLb0EjE9push_backEOm(ptr noundef nonnull align 8 dereferenceable(8) %0, ptr noundef nonnull align 8 dereferenceable(8) %1) #4 comdat align 2 {
  %3 = alloca ptr, align 8
  %4 = alloca ptr, align 8
  store ptr %0, ptr %3, align 8, !tbaa !22
  store ptr %1, ptr %4, align 8, !tbaa !24
  %5 = load ptr, ptr %3, align 8
  %6 = getelementptr inbounds nuw %class.vector, ptr %5, i32 0, i32 0
  %7 = load ptr, ptr %6, align 8, !tbaa !26
  %8 = icmp eq ptr %7, null
  br i1 %8, label %19, label %9

9:                                                ; preds = %2
  %10 = getelementptr inbounds nuw %class.vector, ptr %5, i32 0, i32 0
  %11 = load ptr, ptr %10, align 8, !tbaa !26
  %12 = getelementptr inbounds i32, ptr %11, i64 -1
  %13 = load i32, ptr %12, align 4, !tbaa !12
  %14 = getelementptr inbounds nuw %class.vector, ptr %5, i32 0, i32 0
  %15 = load ptr, ptr %14, align 8, !tbaa !26
  %16 = getelementptr inbounds i32, ptr %15, i64 -2
  %17 = load i32, ptr %16, align 4, !tbaa !12
  %18 = icmp eq i32 %13, %17
  br i1 %18, label %19, label %20

19:                                               ; preds = %9, %2
  call void @_ZN6vectorImLb0EjE13expand_vectorEv(ptr noundef nonnull align 8 dereferenceable(8) %5)
  br label %20

20:                                               ; preds = %19, %9
  %21 = getelementptr inbounds nuw %class.vector, ptr %5, i32 0, i32 0
  %22 = load ptr, ptr %21, align 8, !tbaa !26
  %23 = getelementptr inbounds nuw %class.vector, ptr %5, i32 0, i32 0
  %24 = load ptr, ptr %23, align 8, !tbaa !26
  %25 = getelementptr inbounds i32, ptr %24, i64 -1
  %26 = load i32, ptr %25, align 4, !tbaa !12
  %27 = zext i32 %26 to i64
  %28 = getelementptr inbounds nuw i64, ptr %22, i64 %27
  %29 = load ptr, ptr %4, align 8, !tbaa !24
  %30 = load i64, ptr %29, align 8, !tbaa !8
  store i64 %30, ptr %28, align 8, !tbaa !8
  %31 = getelementptr inbounds nuw %class.vector, ptr %5, i32 0, i32 0
  %32 = load ptr, ptr %31, align 8, !tbaa !26
  %33 = getelementptr inbounds i32, ptr %32, i64 -1
  %34 = load i32, ptr %33, align 4, !tbaa !12
  %35 = add i32 %34, 1
  store i32 %35, ptr %33, align 4, !tbaa !12
  ret ptr %5
}

; Function Attrs: mustprogress uwtable
define hidden void @_ZN15prime_generator10initializeEv(ptr noundef nonnull align 8 dereferenceable(8) %0) #4 align 2 {
  %2 = alloca ptr, align 8
  %3 = alloca i64, align 8
  %4 = alloca i64, align 8
  store ptr %0, ptr %2, align 8, !tbaa !3
  %5 = load ptr, ptr %2, align 8
  %6 = getelementptr inbounds nuw %class.prime_generator, ptr %5, i32 0, i32 0
  call void @llvm.lifetime.start.p0(i64 8, ptr %3) #3
  store i64 2, ptr %3, align 8, !tbaa !8
  %7 = call noundef nonnull align 8 dereferenceable(8) ptr @_ZN6vectorImLb0EjE9push_backEOm(ptr noundef nonnull align 8 dereferenceable(8) %6, ptr noundef nonnull align 8 dereferenceable(8) %3)
  call void @llvm.lifetime.end.p0(i64 8, ptr %3) #3
  %8 = getelementptr inbounds nuw %class.prime_generator, ptr %5, i32 0, i32 0
  call void @llvm.lifetime.start.p0(i64 8, ptr %4) #3
  store i64 3, ptr %4, align 8, !tbaa !8
  %9 = call noundef nonnull align 8 dereferenceable(8) ptr @_ZN6vectorImLb0EjE9push_backEOm(ptr noundef nonnull align 8 dereferenceable(8) %8, ptr noundef nonnull align 8 dereferenceable(8) %4)
  call void @llvm.lifetime.end.p0(i64 8, ptr %4) #3
  call void @_ZN15prime_generator22process_next_k_numbersEm(ptr noundef nonnull align 8 dereferenceable(8) %5, i64 noundef 128)
  ret void
}