; Function Attrs: mustprogress uwtable
define hidden void @_ZN15prime_generator10initializeEv(ptr noundef nonnull align 8 dereferenceable(8) %0) local_unnamed_addr #3 align 2 {
  %2 = load ptr, ptr %0, align 8, !tbaa !3
  %3 = icmp eq ptr %2, null
  br i1 %3, label %10, label %4

4:                                                ; preds = %1
  %5 = getelementptr inbounds i8, ptr %2, i64 -4
  %6 = load i32, ptr %5, align 4, !tbaa !9
  %7 = getelementptr inbounds i8, ptr %2, i64 -8
  %8 = load i32, ptr %7, align 4, !tbaa !9
  %9 = icmp eq i32 %6, %8
  br i1 %9, label %10, label %11

10:                                               ; preds = %4, %1
  tail call void @_ZN6vectorImLb0EjE13expand_vectorEv(ptr noundef nonnull align 8 dereferenceable(8) %0)
  %.pre.i = load ptr, ptr %0, align 8, !tbaa !3
  %.phi.trans.insert.i = getelementptr inbounds i8, ptr %.pre.i, i64 -4
  %.pre2.i = load i32, ptr %.phi.trans.insert.i, align 4, !tbaa !9
  br label %11

11:                                               ; preds = %10, %4
  %12 = phi i32 [ %.pre2.i, %10 ], [ %6, %4 ]
  %13 = phi ptr [ %.pre.i, %10 ], [ %2, %4 ]
  %14 = getelementptr inbounds i8, ptr %13, i64 -4
  %15 = zext i32 %12 to i64
  %16 = getelementptr inbounds nuw i64, ptr %13, i64 %15
  store i64 2, ptr %16, align 8, !tbaa !11
  %17 = add i32 %12, 1
  store i32 %17, ptr %14, align 4, !tbaa !9
  %18 = getelementptr inbounds i8, ptr %13, i64 -8
  %19 = load i32, ptr %18, align 4, !tbaa !9
  %20 = icmp eq i32 %17, %19
  br i1 %20, label %21, label %_ZN6vectorImLb0EjE9push_backEOm.exit4

21:                                               ; preds = %11
  tail call void @_ZN6vectorImLb0EjE13expand_vectorEv(ptr noundef nonnull align 8 dereferenceable(8) %0)
  %.pre.i1 = load ptr, ptr %0, align 8, !tbaa !3
  %.phi.trans.insert.i2 = getelementptr inbounds i8, ptr %.pre.i1, i64 -4
  %.pre2.i3 = load i32, ptr %.phi.trans.insert.i2, align 4, !tbaa !9
  br label %_ZN6vectorImLb0EjE9push_backEOm.exit4

_ZN6vectorImLb0EjE9push_backEOm.exit4:            ; preds = %11, %21
  %22 = phi i32 [ %.pre2.i3, %21 ], [ %17, %11 ]
  %23 = phi ptr [ %.pre.i1, %21 ], [ %13, %11 ]
  %24 = getelementptr inbounds i8, ptr %23, i64 -4
  %25 = zext i32 %22 to i64
  %26 = getelementptr inbounds nuw i64, ptr %23, i64 %25
  store i64 3, ptr %26, align 8, !tbaa !11
  %27 = add i32 %22, 1
  store i32 %27, ptr %24, align 4, !tbaa !9
  tail call void @_ZN15prime_generator22process_next_k_numbersEm(ptr noundef nonnull align 8 dereferenceable(8) %0, i64 noundef 128)
  ret void
}